; Function Attrs: mustprogress nofree norecurse nosync nounwind uwtable
define dso_local void @_ZN7V3Graph17userClearVerticesEv(ptr noundef nonnull readonly align 8 captures(none) dereferenceable(24) %0) #18 align 2 {
  %2 = getelementptr inbounds nuw i8, ptr %0, i64 8
  %3 = load ptr, ptr %2, align 8, !tbaa !25
  %.not10 = icmp eq ptr %3, null
  br i1 %.not10, label %._crit_edge, label %.lr.ph

._crit_edge:                                      ; preds = %.lr.ph, %1
  ret void

.lr.ph:                                           ; preds = %1, %.lr.ph
  %.sroa.05.011 = phi ptr [ %5, %.lr.ph ], [ %3, %1 ]
  %4 = getelementptr inbounds nuw i8, ptr %.sroa.05.011, i64 8
  %5 = load ptr, ptr %4, align 8, !tbaa !24
  %.not.i = icmp eq ptr %5, null
  %6 = select i1 %.not.i, ptr %.sroa.05.011, ptr %5
  tail call void @llvm.prefetch.p0(ptr nonnull %6, i32 1, i32 3, i32 1)
  %7 = getelementptr inbounds nuw i8, ptr %.sroa.05.011, i64 72
  store ptr null, ptr %7, align 8, !tbaa !20
  br i1 %.not.i, label %._crit_edge, label %.lr.ph
}